; Function Attrs: nounwind uwtable
define range(i32 0, 2) i32 @TS_CONF_set_signer_digest(ptr noundef %0, ptr noundef %1, ptr noundef %2, ptr noundef %3) local_unnamed_addr #0 {
  %5 = icmp eq ptr %2, null
  br i1 %5, label %6, label %.thread

6:                                                ; preds = %4
  %7 = tail call ptr @NCONF_get_string(ptr noundef %0, ptr noundef %1, ptr noundef nonnull @.str.12) #4
  %8 = icmp eq ptr %7, null
  br i1 %8, label %9, label %.thread

9:                                                ; preds = %6
  tail call void @ERR_new() #4
  tail call void @ERR_set_debug(ptr noundef nonnull @.str.1, i32 noundef 127, ptr noundef nonnull @__func__.ts_CONF_lookup_fail) #4
  tail call void (i32, i32, ptr, ...) @ERR_set_error(i32 noundef 47, i32 noundef 136, ptr noundef nonnull @.str.26, ptr noundef %1, ptr noundef nonnull @.str.12) #4
  br label %15

.thread:                                          ; preds = %4, %6
  %.01014 = phi ptr [ %7, %6 ], [ %2, %4 ]
  %10 = tail call ptr @EVP_get_digestbyname(ptr noundef nonnull %.01014) #4
  %11 = icmp eq ptr %10, null
  br i1 %11, label %12, label %13

12:                                               ; preds = %.thread
  tail call void @ERR_new() #4
  tail call void @ERR_set_debug(ptr noundef nonnull @.str.1, i32 noundef 132, ptr noundef nonnull @__func__.ts_CONF_invalid) #4
  tail call void (i32, i32, ptr, ...) @ERR_set_error(i32 noundef 47, i32 noundef 135, ptr noundef nonnull @.str.26, ptr noundef %1, ptr noundef nonnull @.str.12) #4
  br label %15

13:                                               ; preds = %.thread
  %14 = tail call i32 @TS_RESP_CTX_set_signer_digest(ptr noundef %3, ptr noundef nonnull %10) #4
  %.not = icmp ne i32 %14, 0
  %spec.select = zext i1 %.not to i32
  br label %15

15:                                               ; preds = %13, %12, %9
  %.0 = phi i32 [ 0, %9 ], [ 0, %12 ], [ %spec.select, %13 ]
  ret i32 %.0
}